; Function Attrs: mustprogress uwtable
define hidden void @_ZN19OpenColorIO_v2_4dev22LogCameraTransformImplC2ERA3_Kd(ptr noundef nonnull align 8 dereferenceable(264) %this, ptr noundef nonnull align 8 dereferenceable(24) %linSideBreakValues) unnamed_addr #0 align 2 personality ptr @__gxx_personality_v0 {
entry:
  store ptr getelementptr inbounds ({ [27 x ptr] }, ptr @_ZTVN19OpenColorIO_v2_4dev22LogCameraTransformImplE, i64 0, i32 0, i64 2), ptr %this, align 8
  %m_data = getelementptr inbounds i8, ptr %this, i64 8
  tail call void @_ZN19OpenColorIO_v2_4dev9LogOpDataC1EdNS_18TransformDirectionE(ptr noundef nonnull align 8 dereferenceable(252) %m_data, double noundef 2.000000e+00, i32 noundef 0)
  invoke void @_ZN19OpenColorIO_v2_4dev9LogOpData8setValueENS_18LogAffineParameterERA3_Kd(ptr noundef nonnull align 8 dereferenceable(252) %m_data, i32 noundef 4, ptr noundef nonnull align 8 dereferenceable(24) %linSideBreakValues)
          to label %invoke.cont3 unwind label %lpad2

invoke.cont3:                                     ; preds = %entry
  ret void

lpad2:                                            ; preds = %entry
  %0 = landingpad { ptr, i32 }
          cleanup
  tail call void @_ZN19OpenColorIO_v2_4dev9LogOpDataD1Ev(ptr noundef nonnull align 8 dereferenceable(252) %m_data) #16
  resume { ptr, i32 } %0
}